target datalayout = "e-m:e-p270:32:32-p271:32:32-p272:64:64-i64:64-i128:128-f80:128-n8:16:32:64-S128"
target triple = "x86_64-pc-linux-gnu"

%struct.AVFilterFormatsConfig = type { ptr, ptr, ptr, ptr, ptr }

; Function Attrs: nounwind uwtable
define internal i32 @hwdownload_query_formats(ptr noundef %0, ptr noundef %1, ptr noundef %2) #1 {
  %4 = alloca i32, align 4
  %5 = alloca ptr, align 8
  %6 = alloca ptr, align 8
  %7 = alloca ptr, align 8
  %8 = alloca i32, align 4
  %9 = alloca i32, align 4
  store ptr %0, ptr %5, align 8, !tbaa !4
  store ptr %1, ptr %6, align 8, !tbaa !24
  store ptr %2, ptr %7, align 8, !tbaa !24
  call void @llvm.lifetime.start.p0(i64 4, ptr %8) #5
  %10 = call ptr @ff_formats_pixdesc_filter(i32 noundef 8, i32 noundef 0)
  %11 = load ptr, ptr %6, align 8, !tbaa !24
  %12 = getelementptr inbounds ptr, ptr %11, i64 0
  %13 = load ptr, ptr %12, align 8, !tbaa !26
  %14 = getelementptr inbounds nuw %struct.AVFilterFormatsConfig, ptr %13, i32 0, i32 0
  %15 = call i32 @ff_formats_ref(ptr noundef %10, ptr noundef %14)
  store i32 %15, ptr %8, align 4, !tbaa !28
  %16 = icmp ne i32 %15, 0
  br i1 %16, label %25, label %17

17:                                               ; preds = %3
  %18 = call ptr @ff_formats_pixdesc_filter(i32 noundef 0, i32 noundef 8)
  %19 = load ptr, ptr %7, align 8, !tbaa !24
  %20 = getelementptr inbounds ptr, ptr %19, i64 0
  %21 = load ptr, ptr %20, align 8, !tbaa !26
  %22 = getelementptr inbounds nuw %struct.AVFilterFormatsConfig, ptr %21, i32 0, i32 0
  %23 = call i32 @ff_formats_ref(ptr noundef %18, ptr noundef %22)
  store i32 %23, ptr %8, align 4, !tbaa !28
  %24 = icmp ne i32 %23, 0
  br i1 %24, label %25, label %27

25:                                               ; preds = %17, %3
  %26 = load i32, ptr %8, align 4, !tbaa !28
  store i32 %26, ptr %4, align 4
  store i32 1, ptr %9, align 4
  br label %28

27:                                               ; preds = %17
  store i32 0, ptr %4, align 4
  store i32 1, ptr %9, align 4
  br label %28

28:                                               ; preds = %27, %25
  call void @llvm.lifetime.end.p0(i64 4, ptr %8) #5
  %29 = load i32, ptr %4, align 4
  ret i32 %29
}