; Function Attrs: nounwind uwtable
define internal i32 @hwdownload_query_formats(ptr readnone captures(none) %0, ptr noundef readonly captures(none) %1, ptr noundef readonly captures(none) %2) #1 {
  %4 = tail call ptr @ff_formats_pixdesc_filter(i32 noundef 8, i32 noundef 0) #4
  %5 = load ptr, ptr %1, align 8, !tbaa !20
  %6 = tail call i32 @ff_formats_ref(ptr noundef %4, ptr noundef %5) #4
  %.not = icmp eq i32 %6, 0
  br i1 %.not, label %7, label %11

7:                                                ; preds = %3
  %8 = tail call ptr @ff_formats_pixdesc_filter(i32 noundef 0, i32 noundef 8) #4
  %9 = load ptr, ptr %2, align 8, !tbaa !20
  %10 = tail call i32 @ff_formats_ref(ptr noundef %8, ptr noundef %9) #4
  br label %11

11:                                               ; preds = %7, %3
  %.03 = phi i32 [ %6, %3 ], [ %10, %7 ]
  ret i32 %.03
}